target datalayout = "e-m:e-p270:32:32-p271:32:32-p272:64:64-i64:64-i128:128-f80:128-n8:16:32:64-S128"
target triple = "x86_64-pc-linux-gnu"

%struct.reassembly_table = type { ptr, ptr, ptr, ptr, ptr }
%struct._packet_info = type { ptr, ptr, i32, i32, %struct.nstime_t, %struct.nstime_t, %struct.nstime_t, i8, ptr, ptr, ptr, ptr, %struct._address, %struct._address, %struct._address, %struct._address, %struct._address, %struct._address, i32, ptr, i8, [3 x i8], %struct.anon, i32, i32, i32, i32, ptr, i8, ptr, ptr, i16, i16, i32, i32, i16, i32, i32, ptr, ptr, ptr, i8, i8, i16, i16, i16, i32, i16, i16, ptr, ptr, ptr, ptr, ptr, i32, i32 }
%struct.nstime_t = type { i64, i32 }
%struct._address = type { i32, i32, ptr, ptr }
%struct.anon = type { i8, [3 x i8] }

@hf_docsis_dbcreq_number_of_fragments = internal global i32 0, align 4
@hf_docsis_dbcreq_fragment_sequence_number = internal global i32 0, align 4
@hf_docsis_mgt_tranid = internal global i32 0, align 4
@hf_docsis_tlv_reassembled = internal global i32 0, align 4
@.str.1300 = private unnamed_addr constant [16 x i8] c"Reassembled TLV\00", align 1
@ett_docsis_dbcreq = internal global i32 0, align 4
@ett_docsis_tlv_reassembled = internal global i32 0, align 4
@proto_docsis_dbcreq = internal global i32 0, align 4
@docsis_tlv_handle = internal global ptr null, align 8
@docsis_tlv_reassembly_table = internal global %struct.reassembly_table zeroinitializer, align 8
@.str.2204 = private unnamed_addr constant [46 x i8] c"Dynamic Bonding Change Request: Tran-Id = %u \00", align 1

; Function Attrs: null_pointer_is_valid sspstrong uwtable
define internal i32 @dissect_dbcreq(ptr noundef %0, ptr noundef %1, ptr noundef %2, ptr noundef %3) #0 {
  %5 = alloca ptr, align 8
  %6 = alloca ptr, align 8
  %7 = alloca ptr, align 8
  %8 = alloca ptr, align 8
  %9 = alloca ptr, align 8
  %10 = alloca ptr, align 8
  %11 = alloca ptr, align 8
  %12 = alloca ptr, align 8
  %13 = alloca i32, align 4
  %14 = alloca i32, align 4
  %15 = alloca i32, align 4
  %16 = alloca i32, align 4
  %17 = alloca ptr, align 8
  %18 = alloca ptr, align 8
  %19 = alloca ptr, align 8
  store ptr %0, ptr %5, align 8
  store ptr %1, ptr %6, align 8
  store ptr %2, ptr %7, align 8
  store ptr %3, ptr %8, align 8
  call void @llvm.lifetime.start.p0(i64 8, ptr %9) #6
  call void @llvm.lifetime.start.p0(i64 8, ptr %10) #6
  call void @llvm.lifetime.start.p0(i64 8, ptr %11) #6
  call void @llvm.lifetime.start.p0(i64 8, ptr %12) #6
  call void @llvm.lifetime.start.p0(i64 4, ptr %13) #6
  call void @llvm.lifetime.start.p0(i64 4, ptr %14) #6
  call void @llvm.lifetime.start.p0(i64 4, ptr %15) #6
  call void @llvm.lifetime.start.p0(i64 4, ptr %16) #6
  call void @llvm.lifetime.start.p0(i64 8, ptr %17) #6
  %20 = load ptr, ptr %7, align 8
  %21 = load i32, ptr @proto_docsis_dbcreq, align 4
  %22 = load ptr, ptr %5, align 8
  %23 = call ptr @proto_tree_add_item(ptr noundef %20, i32 noundef %21, ptr noundef %22, i32 noundef 0, i32 noundef -1, i32 noundef 0)
  store ptr %23, ptr %9, align 8
  %24 = load ptr, ptr %9, align 8
  %25 = load i32, ptr @ett_docsis_dbcreq, align 4
  %26 = call ptr @proto_item_add_subtree(ptr noundef %24, i32 noundef %25)
  store ptr %26, ptr %11, align 8
  %27 = load ptr, ptr %11, align 8
  %28 = load i32, ptr @hf_docsis_mgt_tranid, align 4
  %29 = load ptr, ptr %5, align 8
  %30 = call ptr @proto_tree_add_item_ret_uint(ptr noundef %27, i32 noundef %28, ptr noundef %29, i32 noundef 0, i32 noundef 2, i32 noundef 0, ptr noundef %13)
  %31 = load ptr, ptr %11, align 8
  %32 = load i32, ptr @hf_docsis_dbcreq_number_of_fragments, align 4
  %33 = load ptr, ptr %5, align 8
  %34 = call ptr @proto_tree_add_item_ret_uint(ptr noundef %31, i32 noundef %32, ptr noundef %33, i32 noundef 2, i32 noundef 1, i32 noundef 0, ptr noundef %14)
  %35 = load ptr, ptr %11, align 8
  %36 = load i32, ptr @hf_docsis_dbcreq_fragment_sequence_number, align 4
  %37 = load ptr, ptr %5, align 8
  %38 = call ptr @proto_tree_add_item_ret_uint(ptr noundef %35, i32 noundef %36, ptr noundef %37, i32 noundef 3, i32 noundef 1, i32 noundef 0, ptr noundef %15)
  %39 = load ptr, ptr %6, align 8
  %40 = getelementptr inbounds nuw %struct._packet_info, ptr %39, i32 0, i32 1
  %41 = load ptr, ptr %40, align 8
  %42 = load i32, ptr %13, align 4
  call void (ptr, i32, ptr, ...) @col_add_fstr(ptr noundef %41, i32 noundef 25, ptr noundef @.str.2204, i32 noundef %42)
  %43 = load ptr, ptr %6, align 8
  %44 = getelementptr inbounds nuw %struct._packet_info, ptr %43, i32 0, i32 1
  %45 = load ptr, ptr %44, align 8
  call void @col_set_fence(ptr noundef %45, i32 noundef 25)
  %46 = load i32, ptr %14, align 4
  %47 = icmp ugt i32 %46, 1
  br i1 %47, label %48, label %93

48:                                               ; preds = %4
  %49 = load ptr, ptr %6, align 8
  %50 = getelementptr inbounds nuw %struct._packet_info, ptr %49, i32 0, i32 20
  store i8 1, ptr %50, align 8
  %51 = load i32, ptr %13, align 4
  %52 = add i32 603979776, %51
  store i32 %52, ptr %16, align 4
  call void @llvm.lifetime.start.p0(i64 8, ptr %18) #6
  store ptr null, ptr %18, align 8
  %53 = load ptr, ptr %5, align 8
  %54 = load ptr, ptr %6, align 8
  %55 = load i32, ptr %16, align 4
  %56 = load i32, ptr %15, align 4
  %57 = sub i32 %56, 1
  %58 = load ptr, ptr %5, align 8
  %59 = call i32 @tvb_reported_length_remaining(ptr noundef %58, i32 noundef 4)
  %60 = load i32, ptr %15, align 4
  %61 = load i32, ptr %14, align 4
  %62 = icmp ne i32 %60, %61
  %63 = call ptr @fragment_add_seq_check(ptr noundef @docsis_tlv_reassembly_table, ptr noundef %53, i32 noundef 4, ptr noundef %54, i32 noundef %55, ptr noundef null, i32 noundef %57, i32 noundef %59, i1 noundef zeroext %62)
  store ptr %63, ptr %18, align 8
  %64 = load ptr, ptr %18, align 8
  %65 = icmp ne ptr %64, null
  br i1 %65, label %66, label %92

66:                                               ; preds = %48
  call void @llvm.lifetime.start.p0(i64 8, ptr %19) #6
  store ptr null, ptr %19, align 8
  %67 = load ptr, ptr %11, align 8
  %68 = load i32, ptr @hf_docsis_tlv_reassembled, align 4
  %69 = load ptr, ptr %5, align 8
  %70 = call ptr @proto_tree_add_item(ptr noundef %67, i32 noundef %68, ptr noundef %69, i32 noundef 0, i32 noundef -1, i32 noundef 0)
  store ptr %70, ptr %10, align 8
  %71 = load ptr, ptr %10, align 8
  %72 = load i32, ptr @ett_docsis_tlv_reassembled, align 4
  %73 = call ptr @proto_item_add_subtree(ptr noundef %71, i32 noundef %72)
  store ptr %73, ptr %12, align 8
  %74 = load ptr, ptr %5, align 8
  %75 = load ptr, ptr %6, align 8
  %76 = load ptr, ptr %18, align 8
  %77 = load ptr, ptr %12, align 8
  %78 = call ptr @process_reassembled_data(ptr noundef %74, i32 noundef 4, ptr noundef %75, ptr noundef @.str.1300, ptr noundef %76, ptr noundef @docsis_tlv_frag_items, ptr noundef null, ptr noundef %77)
  store ptr %78, ptr %19, align 8
  %79 = load ptr, ptr %19, align 8
  %80 = icmp ne ptr %79, null
  br i1 %80, label %81, label %91

81:                                               ; preds = %66
  %82 = load ptr, ptr %19, align 8
  %83 = call i32 @tvb_reported_length(ptr noundef %82)
  %84 = icmp ugt i32 %83, 0
  br i1 %84, label %85, label %91

85:                                               ; preds = %81
  %86 = load ptr, ptr @docsis_tlv_handle, align 8
  %87 = load ptr, ptr %19, align 8
  %88 = load ptr, ptr %6, align 8
  %89 = load ptr, ptr %12, align 8
  %90 = call i32 @call_dissector(ptr noundef %86, ptr noundef %87, ptr noundef %88, ptr noundef %89)
  br label %91

91:                                               ; preds = %85, %81, %66
  call void @llvm.lifetime.end.p0(i64 8, ptr %19) #6
  br label %92

92:                                               ; preds = %91, %48
  call void @llvm.lifetime.end.p0(i64 8, ptr %18) #6
  br label %101

93:                                               ; preds = %4
  %94 = load ptr, ptr %5, align 8
  %95 = call ptr @tvb_new_subset_remaining(ptr noundef %94, i32 noundef 4)
  store ptr %95, ptr %17, align 8
  %96 = load ptr, ptr @docsis_tlv_handle, align 8
  %97 = load ptr, ptr %17, align 8
  %98 = load ptr, ptr %6, align 8
  %99 = load ptr, ptr %11, align 8
  %100 = call i32 @call_dissector(ptr noundef %96, ptr noundef %97, ptr noundef %98, ptr noundef %99)
  br label %101

101:                                              ; preds = %93, %92
  %102 = load ptr, ptr %5, align 8
  %103 = call i32 @tvb_captured_length(ptr noundef %102)
  call void @llvm.lifetime.end.p0(i64 8, ptr %17) #6
  call void @llvm.lifetime.end.p0(i64 4, ptr %16) #6
  call void @llvm.lifetime.end.p0(i64 4, ptr %15) #6
  call void @llvm.lifetime.end.p0(i64 4, ptr %14) #6
  call void @llvm.lifetime.end.p0(i64 4, ptr %13) #6
  call void @llvm.lifetime.end.p0(i64 8, ptr %12) #6
  call void @llvm.lifetime.end.p0(i64 8, ptr %11) #6
  call void @llvm.lifetime.end.p0(i64 8, ptr %10) #6
  call void @llvm.lifetime.end.p0(i64 8, ptr %9) #6
  ret i32 %103
}