; Function Attrs: null_pointer_is_valid sspstrong uwtable
define internal i32 @dissect_dbcreq(ptr noundef %0, ptr noundef %1, ptr noundef %2, ptr readnone captures(none) %3) #0 {
  %5 = alloca i32, align 4
  %6 = alloca i32, align 4
  %7 = alloca i32, align 4
  call void @llvm.lifetime.start.p0(i64 4, ptr nonnull %5) #6
  call void @llvm.lifetime.start.p0(i64 4, ptr nonnull %6) #6
  call void @llvm.lifetime.start.p0(i64 4, ptr nonnull %7) #6
  %8 = load i32, ptr @proto_docsis_dbcreq, align 4
  %9 = tail call ptr @proto_tree_add_item(ptr noundef %2, i32 noundef %8, ptr noundef %0, i32 noundef 0, i32 noundef -1, i32 noundef 0)
  %10 = load i32, ptr @ett_docsis_dbcreq, align 4
  %11 = tail call ptr @proto_item_add_subtree(ptr noundef %9, i32 noundef %10)
  %12 = load i32, ptr @hf_docsis_mgt_tranid, align 4
  %13 = call ptr @proto_tree_add_item_ret_uint(ptr noundef %11, i32 noundef %12, ptr noundef %0, i32 noundef 0, i32 noundef 2, i32 noundef 0, ptr noundef nonnull %5)
  %14 = load i32, ptr @hf_docsis_dbcreq_number_of_fragments, align 4
  %15 = call ptr @proto_tree_add_item_ret_uint(ptr noundef %11, i32 noundef %14, ptr noundef %0, i32 noundef 2, i32 noundef 1, i32 noundef 0, ptr noundef nonnull %6)
  %16 = load i32, ptr @hf_docsis_dbcreq_fragment_sequence_number, align 4
  %17 = call ptr @proto_tree_add_item_ret_uint(ptr noundef %11, i32 noundef %16, ptr noundef %0, i32 noundef 3, i32 noundef 1, i32 noundef 0, ptr noundef nonnull %7)
  %18 = getelementptr inbounds nuw i8, ptr %1, i64 8
  %19 = load ptr, ptr %18, align 8
  %20 = load i32, ptr %5, align 4
  call void (ptr, i32, ptr, ...) @col_add_fstr(ptr noundef %19, i32 noundef 25, ptr noundef nonnull @.str.2204, i32 noundef %20)
  %21 = load ptr, ptr %18, align 8
  call void @col_set_fence(ptr noundef %21, i32 noundef 25)
  %22 = load i32, ptr %6, align 4
  %23 = icmp ugt i32 %22, 1
  br i1 %23, label %24, label %46

24:                                               ; preds = %4
  %25 = getelementptr inbounds nuw i8, ptr %1, i64 272
  store i8 1, ptr %25, align 8
  %26 = load i32, ptr %5, align 4
  %27 = add i32 %26, 603979776
  %28 = load i32, ptr %7, align 4
  %29 = add i32 %28, -1
  %30 = call i32 @tvb_reported_length_remaining(ptr noundef %0, i32 noundef 4)
  %31 = load i32, ptr %7, align 4
  %32 = load i32, ptr %6, align 4
  %33 = icmp ne i32 %31, %32
  %34 = call ptr @fragment_add_seq_check(ptr noundef nonnull @docsis_tlv_reassembly_table, ptr noundef %0, i32 noundef 4, ptr noundef %1, i32 noundef %27, ptr noundef null, i32 noundef %29, i32 noundef %30, i1 noundef zeroext %33)
  %.not = icmp eq ptr %34, null
  br i1 %.not, label %50, label %35

35:                                               ; preds = %24
  %36 = load i32, ptr @hf_docsis_tlv_reassembled, align 4
  %37 = call ptr @proto_tree_add_item(ptr noundef %11, i32 noundef %36, ptr noundef %0, i32 noundef 0, i32 noundef -1, i32 noundef 0)
  %38 = load i32, ptr @ett_docsis_tlv_reassembled, align 4
  %39 = call ptr @proto_item_add_subtree(ptr noundef %37, i32 noundef %38)
  %40 = call ptr @process_reassembled_data(ptr noundef %0, i32 noundef 4, ptr noundef %1, ptr noundef nonnull @.str.1300, ptr noundef nonnull %34, ptr noundef nonnull @docsis_tlv_frag_items, ptr noundef null, ptr noundef %39)
  %.not34 = icmp eq ptr %40, null
  br i1 %.not34, label %50, label %41

41:                                               ; preds = %35
  %42 = call i32 @tvb_reported_length(ptr noundef nonnull %40)
  %.not35 = icmp eq i32 %42, 0
  br i1 %.not35, label %50, label %43

43:                                               ; preds = %41
  %44 = load ptr, ptr @docsis_tlv_handle, align 8
  %45 = call i32 @call_dissector(ptr noundef %44, ptr noundef nonnull %40, ptr noundef %1, ptr noundef %39)
  br label %50

46:                                               ; preds = %4
  %47 = call ptr @tvb_new_subset_remaining(ptr noundef %0, i32 noundef 4)
  %48 = load ptr, ptr @docsis_tlv_handle, align 8
  %49 = call i32 @call_dissector(ptr noundef %48, ptr noundef %47, ptr noundef %1, ptr noundef %11)
  br label %50

50:                                               ; preds = %24, %43, %41, %35, %46
  %51 = call i32 @tvb_captured_length(ptr noundef %0)
  call void @llvm.lifetime.end.p0(i64 4, ptr nonnull %7) #6
  call void @llvm.lifetime.end.p0(i64 4, ptr nonnull %6) #6
  call void @llvm.lifetime.end.p0(i64 4, ptr nonnull %5) #6
  ret i32 %51
}